; Function Attrs: mustprogress nofree nounwind uwtable
define hidden noundef nonnull ptr @_ZN6cvtest2TS3ptrEv() local_unnamed_addr #8 align 2 personality ptr @__gxx_personality_v0 {
  %1 = load atomic i8, ptr @_ZGVZN6cvtest2TS3ptrEvE2ts acquire, align 8
  %2 = icmp eq i8 %1, 0
  br i1 %2, label %3, label %7, !prof !18

3:                                                ; preds = %0
  %4 = tail call i32 @__cxa_guard_acquire(ptr nonnull @_ZGVZN6cvtest2TS3ptrEvE2ts) #41
  %.not = icmp eq i32 %4, 0
  br i1 %.not, label %7, label %5

5:                                                ; preds = %3
  tail call void @_ZN6cvtest2TSC2Ev(ptr noundef nonnull align 8 dereferenceable(280) @_ZZN6cvtest2TS3ptrEvE2ts)
  %6 = tail call i32 @__cxa_atexit(ptr nonnull @_ZN6cvtest2TSD2Ev, ptr nonnull @_ZZN6cvtest2TS3ptrEvE2ts, ptr nonnull @__dso_handle) #41
  tail call void @__cxa_guard_release(ptr nonnull @_ZGVZN6cvtest2TS3ptrEvE2ts) #41
  br label %7

7:                                                ; preds = %5, %3, %0
  ret ptr @_ZZN6cvtest2TS3ptrEvE2ts
}